target datalayout = "e-m:e-p270:32:32-p271:32:32-p272:64:64-i64:64-i128:128-f80:128-n8:16:32:64-S128"
target triple = "x86_64-pc-linux-gnu"

%struct.pm_node_hash_t = type { ptr, i32, i32 }

; Function Attrs: nounwind sspstrong uwtable
define internal ptr @pm_node_hash_insert(ptr noundef %0, ptr noundef %1, ptr noundef %2, i1 noundef zeroext %3, ptr noundef %4) #0 {
  %6 = alloca ptr, align 8
  %7 = alloca ptr, align 8
  %8 = alloca ptr, align 8
  %9 = alloca ptr, align 8
  %10 = alloca i8, align 1
  %11 = alloca ptr, align 8
  %12 = alloca i32, align 4
  %13 = alloca ptr, align 8
  %14 = alloca i32, align 4
  %15 = alloca i32, align 4
  %16 = alloca i32, align 4
  %17 = alloca ptr, align 8
  %18 = alloca i32, align 4
  %19 = alloca i32, align 4
  %20 = alloca i32, align 4
  %21 = alloca ptr, align 8
  store ptr %0, ptr %7, align 8, !tbaa !7
  store ptr %1, ptr %8, align 8, !tbaa !7
  store ptr %2, ptr %9, align 8, !tbaa !13
  %22 = zext i1 %3 to i8
  store i8 %22, ptr %10, align 1, !tbaa !15
  store ptr %4, ptr %11, align 8, !tbaa !7
  %23 = load ptr, ptr %7, align 8, !tbaa !7
  %24 = getelementptr inbounds nuw %struct.pm_node_hash_t, ptr %23, i32 0, i32 1
  %25 = load i32, ptr %24, align 8, !tbaa !35
  %26 = mul i32 %25, 2
  %27 = load ptr, ptr %7, align 8, !tbaa !7
  %28 = getelementptr inbounds nuw %struct.pm_node_hash_t, ptr %27, i32 0, i32 2
  %29 = load i32, ptr %28, align 4, !tbaa !36
  %30 = icmp uge i32 %26, %29
  br i1 %30, label %31, label %98

31:                                               ; preds = %5
  call void @llvm.lifetime.start.p0(i64 4, ptr %12) #9
  %32 = load ptr, ptr %7, align 8, !tbaa !7
  %33 = getelementptr inbounds nuw %struct.pm_node_hash_t, ptr %32, i32 0, i32 2
  %34 = load i32, ptr %33, align 4, !tbaa !36
  %35 = icmp eq i32 %34, 0
  br i1 %35, label %36, label %37

36:                                               ; preds = %31
  br label %42

37:                                               ; preds = %31
  %38 = load ptr, ptr %7, align 8, !tbaa !7
  %39 = getelementptr inbounds nuw %struct.pm_node_hash_t, ptr %38, i32 0, i32 2
  %40 = load i32, ptr %39, align 4, !tbaa !36
  %41 = mul i32 %40, 2
  br label %42

42:                                               ; preds = %37, %36
  %43 = phi i32 [ 4, %36 ], [ %41, %37 ]
  store i32 %43, ptr %12, align 4, !tbaa !11
  call void @llvm.lifetime.start.p0(i64 8, ptr %13) #9
  %44 = load i32, ptr %12, align 4, !tbaa !11
  %45 = zext i32 %44 to i64
  %46 = call noalias ptr @calloc(i64 noundef %45, i64 noundef 8) #10
  store ptr %46, ptr %13, align 8, !tbaa !37
  %47 = load ptr, ptr %13, align 8, !tbaa !37
  %48 = icmp eq ptr %47, null
  br i1 %48, label %49, label %50

49:                                               ; preds = %42
  store ptr null, ptr %6, align 8
  store i32 1, ptr %14, align 4
  br label %95

50:                                               ; preds = %42
  call void @llvm.lifetime.start.p0(i64 4, ptr %15) #9
  %51 = load i32, ptr %12, align 4, !tbaa !11
  %52 = sub i32 %51, 1
  store i32 %52, ptr %15, align 4, !tbaa !11
  call void @llvm.lifetime.start.p0(i64 4, ptr %16) #9
  store i32 0, ptr %16, align 4, !tbaa !11
  br label %53

53:                                               ; preds = %82, %50
  %54 = load i32, ptr %16, align 4, !tbaa !11
  %55 = load ptr, ptr %7, align 8, !tbaa !7
  %56 = getelementptr inbounds nuw %struct.pm_node_hash_t, ptr %55, i32 0, i32 2
  %57 = load i32, ptr %56, align 4, !tbaa !36
  %58 = icmp ult i32 %54, %57
  br i1 %58, label %60, label %59

59:                                               ; preds = %53
  store i32 2, ptr %14, align 4
  call void @llvm.lifetime.end.p0(i64 4, ptr %16) #9
  br label %85

60:                                               ; preds = %53
  call void @llvm.lifetime.start.p0(i64 8, ptr %17) #9
  %61 = load ptr, ptr %7, align 8, !tbaa !7
  %62 = getelementptr inbounds nuw %struct.pm_node_hash_t, ptr %61, i32 0, i32 0
  %63 = load ptr, ptr %62, align 8, !tbaa !38
  %64 = load i32, ptr %16, align 4, !tbaa !11
  %65 = zext i32 %64 to i64
  %66 = getelementptr ptr, ptr %63, i64 %65
  %67 = load ptr, ptr %66, align 8, !tbaa !13
  store ptr %67, ptr %17, align 8, !tbaa !13
  %68 = load ptr, ptr %17, align 8, !tbaa !13
  %69 = icmp ne ptr %68, null
  br i1 %69, label %70, label %81

70:                                               ; preds = %60
  call void @llvm.lifetime.start.p0(i64 4, ptr %18) #9
  %71 = load ptr, ptr %8, align 8, !tbaa !7
  %72 = load ptr, ptr %17, align 8, !tbaa !13
  %73 = call i32 @node_hash(ptr noundef %71, ptr noundef %72)
  %74 = load i32, ptr %15, align 4, !tbaa !11
  %75 = and i32 %73, %74
  store i32 %75, ptr %18, align 4, !tbaa !11
  %76 = load ptr, ptr %17, align 8, !tbaa !13
  %77 = load ptr, ptr %13, align 8, !tbaa !37
  %78 = load i32, ptr %18, align 4, !tbaa !11
  %79 = zext i32 %78 to i64
  %80 = getelementptr ptr, ptr %77, i64 %79
  store ptr %76, ptr %80, align 8, !tbaa !13
  call void @llvm.lifetime.end.p0(i64 4, ptr %18) #9
  br label %81

81:                                               ; preds = %70, %60
  call void @llvm.lifetime.end.p0(i64 8, ptr %17) #9
  br label %82

82:                                               ; preds = %81
  %83 = load i32, ptr %16, align 4, !tbaa !11
  %84 = add i32 %83, 1
  store i32 %84, ptr %16, align 4, !tbaa !11
  br label %53, !llvm.loop !39

85:                                               ; preds = %59
  %86 = load ptr, ptr %7, align 8, !tbaa !7
  %87 = getelementptr inbounds nuw %struct.pm_node_hash_t, ptr %86, i32 0, i32 0
  %88 = load ptr, ptr %87, align 8, !tbaa !38
  call void @free(ptr noundef %88) #9
  %89 = load ptr, ptr %13, align 8, !tbaa !37
  %90 = load ptr, ptr %7, align 8, !tbaa !7
  %91 = getelementptr inbounds nuw %struct.pm_node_hash_t, ptr %90, i32 0, i32 0
  store ptr %89, ptr %91, align 8, !tbaa !38
  %92 = load i32, ptr %12, align 4, !tbaa !11
  %93 = load ptr, ptr %7, align 8, !tbaa !7
  %94 = getelementptr inbounds nuw %struct.pm_node_hash_t, ptr %93, i32 0, i32 2
  store i32 %92, ptr %94, align 4, !tbaa !36
  call void @llvm.lifetime.end.p0(i64 4, ptr %15) #9
  store i32 0, ptr %14, align 4
  br label %95

95:                                               ; preds = %85, %49
  call void @llvm.lifetime.end.p0(i64 8, ptr %13) #9
  call void @llvm.lifetime.end.p0(i64 4, ptr %12) #9
  %96 = load i32, ptr %14, align 4
  switch i32 %96, label %174 [
    i32 0, label %97
    i32 1, label %172
  ]

97:                                               ; preds = %95
  br label %98

98:                                               ; preds = %97, %5
  call void @llvm.lifetime.start.p0(i64 4, ptr %19) #9
  %99 = load ptr, ptr %7, align 8, !tbaa !7
  %100 = getelementptr inbounds nuw %struct.pm_node_hash_t, ptr %99, i32 0, i32 2
  %101 = load i32, ptr %100, align 4, !tbaa !36
  %102 = sub i32 %101, 1
  store i32 %102, ptr %19, align 4, !tbaa !11
  call void @llvm.lifetime.start.p0(i64 4, ptr %20) #9
  %103 = load ptr, ptr %8, align 8, !tbaa !7
  %104 = load ptr, ptr %9, align 8, !tbaa !13
  %105 = call i32 @node_hash(ptr noundef %103, ptr noundef %104)
  %106 = load i32, ptr %19, align 4, !tbaa !11
  %107 = and i32 %105, %106
  store i32 %107, ptr %20, align 4, !tbaa !11
  br label %108

108:                                              ; preds = %131, %98
  %109 = load ptr, ptr %7, align 8, !tbaa !7
  %110 = getelementptr inbounds nuw %struct.pm_node_hash_t, ptr %109, i32 0, i32 0
  %111 = load ptr, ptr %110, align 8, !tbaa !38
  %112 = load i32, ptr %20, align 4, !tbaa !11
  %113 = zext i32 %112 to i64
  %114 = getelementptr ptr, ptr %111, i64 %113
  %115 = load ptr, ptr %114, align 8, !tbaa !13
  %116 = icmp ne ptr %115, null
  br i1 %116, label %117, label %136

117:                                              ; preds = %108
  %118 = load ptr, ptr %11, align 8, !tbaa !7
  %119 = load ptr, ptr %8, align 8, !tbaa !7
  %120 = load ptr, ptr %7, align 8, !tbaa !7
  %121 = getelementptr inbounds nuw %struct.pm_node_hash_t, ptr %120, i32 0, i32 0
  %122 = load ptr, ptr %121, align 8, !tbaa !38
  %123 = load i32, ptr %20, align 4, !tbaa !11
  %124 = zext i32 %123 to i64
  %125 = getelementptr ptr, ptr %122, i64 %124
  %126 = load ptr, ptr %125, align 8, !tbaa !13
  %127 = load ptr, ptr %9, align 8, !tbaa !13
  %128 = call i32 %118(ptr noundef %119, ptr noundef %126, ptr noundef %127)
  %129 = icmp eq i32 %128, 0
  br i1 %129, label %130, label %131

130:                                              ; preds = %117
  br label %136

131:                                              ; preds = %117
  %132 = load i32, ptr %20, align 4, !tbaa !11
  %133 = add i32 %132, 1
  %134 = load i32, ptr %19, align 4, !tbaa !11
  %135 = and i32 %133, %134
  store i32 %135, ptr %20, align 4, !tbaa !11
  br label %108, !llvm.loop !41

136:                                              ; preds = %130, %108
  call void @llvm.lifetime.start.p0(i64 8, ptr %21) #9
  %137 = load ptr, ptr %7, align 8, !tbaa !7
  %138 = getelementptr inbounds nuw %struct.pm_node_hash_t, ptr %137, i32 0, i32 0
  %139 = load ptr, ptr %138, align 8, !tbaa !38
  %140 = load i32, ptr %20, align 4, !tbaa !11
  %141 = zext i32 %140 to i64
  %142 = getelementptr ptr, ptr %139, i64 %141
  %143 = load ptr, ptr %142, align 8, !tbaa !13
  store ptr %143, ptr %21, align 8, !tbaa !13
  %144 = load ptr, ptr %21, align 8, !tbaa !13
  %145 = icmp eq ptr %144, null
  br i1 %145, label %146, label %158

146:                                              ; preds = %136
  %147 = load ptr, ptr %7, align 8, !tbaa !7
  %148 = getelementptr inbounds nuw %struct.pm_node_hash_t, ptr %147, i32 0, i32 1
  %149 = load i32, ptr %148, align 8, !tbaa !35
  %150 = add i32 %149, 1
  store i32 %150, ptr %148, align 8, !tbaa !35
  %151 = load ptr, ptr %9, align 8, !tbaa !13
  %152 = load ptr, ptr %7, align 8, !tbaa !7
  %153 = getelementptr inbounds nuw %struct.pm_node_hash_t, ptr %152, i32 0, i32 0
  %154 = load ptr, ptr %153, align 8, !tbaa !38
  %155 = load i32, ptr %20, align 4, !tbaa !11
  %156 = zext i32 %155 to i64
  %157 = getelementptr ptr, ptr %154, i64 %156
  store ptr %151, ptr %157, align 8, !tbaa !13
  br label %170

158:                                              ; preds = %136
  %159 = load i8, ptr %10, align 1, !tbaa !15, !range !26, !noundef !27
  %160 = trunc i8 %159 to i1
  br i1 %160, label %161, label %169

161:                                              ; preds = %158
  %162 = load ptr, ptr %9, align 8, !tbaa !13
  %163 = load ptr, ptr %7, align 8, !tbaa !7
  %164 = getelementptr inbounds nuw %struct.pm_node_hash_t, ptr %163, i32 0, i32 0
  %165 = load ptr, ptr %164, align 8, !tbaa !38
  %166 = load i32, ptr %20, align 4, !tbaa !11
  %167 = zext i32 %166 to i64
  %168 = getelementptr ptr, ptr %165, i64 %167
  store ptr %162, ptr %168, align 8, !tbaa !13
  br label %169

169:                                              ; preds = %161, %158
  br label %170

170:                                              ; preds = %169, %146
  %171 = load ptr, ptr %21, align 8, !tbaa !13
  store ptr %171, ptr %6, align 8
  store i32 1, ptr %14, align 4
  call void @llvm.lifetime.end.p0(i64 8, ptr %21) #9
  call void @llvm.lifetime.end.p0(i64 4, ptr %20) #9
  call void @llvm.lifetime.end.p0(i64 4, ptr %19) #9
  br label %172

172:                                              ; preds = %170, %95
  %173 = load ptr, ptr %6, align 8
  ret ptr %173

174:                                              ; preds = %95
  unreachable
}