; Function Attrs: nounwind sspstrong uwtable
define internal fastcc ptr @pm_node_hash_insert(ptr noundef captures(none) %0, ptr noundef nonnull %1, ptr noundef %2, i1 noundef zeroext %3, ptr noundef readonly captures(none) %4) unnamed_addr #0 {
  %6 = getelementptr inbounds nuw i8, ptr %0, i64 8
  %7 = load i32, ptr %6, align 8, !tbaa !20
  %8 = shl i32 %7, 1
  %9 = getelementptr inbounds nuw i8, ptr %0, i64 12
  %10 = load i32, ptr %9, align 4, !tbaa !23
  %.not = icmp ult i32 %8, %10
  br i1 %.not, label %._crit_edge73, label %11

._crit_edge73:                                    ; preds = %5
  %.pre74 = add i32 %10, -1
  br label %33

11:                                               ; preds = %5
  %12 = icmp eq i32 %10, 0
  %13 = shl i32 %10, 1
  %spec.select = select i1 %12, i32 4, i32 %13
  %14 = zext i32 %spec.select to i64
  %15 = tail call noalias ptr @calloc(i64 noundef %14, i64 noundef 8) #8
  %16 = icmp eq ptr %15, null
  br i1 %16, label %.thread, label %17

17:                                               ; preds = %11
  %18 = add i32 %spec.select, -1
  br i1 %12, label %._crit_edge, label %.lr.ph

.lr.ph:                                           ; preds = %17, %28
  %19 = phi i32 [ %29, %28 ], [ %10, %17 ]
  %indvars.iv = phi i64 [ %indvars.iv.next, %28 ], [ 0, %17 ]
  %20 = load ptr, ptr %0, align 8, !tbaa !24
  %21 = getelementptr ptr, ptr %20, i64 %indvars.iv
  %22 = load ptr, ptr %21, align 8, !tbaa !25
  %.not56 = icmp eq ptr %22, null
  br i1 %.not56, label %28, label %23

23:                                               ; preds = %.lr.ph
  %24 = tail call fastcc i32 @node_hash(ptr noundef %1, ptr noundef nonnull %22)
  %25 = and i32 %24, %18
  %26 = zext i32 %25 to i64
  %27 = getelementptr ptr, ptr %15, i64 %26
  store ptr %22, ptr %27, align 8, !tbaa !25
  %.pre = load i32, ptr %9, align 4, !tbaa !23
  br label %28

28:                                               ; preds = %23, %.lr.ph
  %29 = phi i32 [ %.pre, %23 ], [ %19, %.lr.ph ]
  %indvars.iv.next = add nuw nsw i64 %indvars.iv, 1
  %30 = zext i32 %29 to i64
  %31 = icmp samesign ult i64 %indvars.iv.next, %30
  br i1 %31, label %.lr.ph, label %._crit_edge, !llvm.loop !27

._crit_edge:                                      ; preds = %28, %17
  %32 = load ptr, ptr %0, align 8, !tbaa !24
  tail call void @free(ptr noundef %32) #9
  store ptr %15, ptr %0, align 8, !tbaa !24
  store i32 %spec.select, ptr %9, align 4, !tbaa !23
  br label %33

33:                                               ; preds = %._crit_edge73, %._crit_edge
  %.pre-phi = phi i32 [ %.pre74, %._crit_edge73 ], [ %18, %._crit_edge ]
  %34 = tail call fastcc i32 @node_hash(ptr noundef %1, ptr noundef %2)
  %.05060 = and i32 %34, %.pre-phi
  %35 = load ptr, ptr %0, align 8, !tbaa !24
  %36 = zext i32 %.05060 to i64
  %37 = getelementptr ptr, ptr %35, i64 %36
  %38 = load ptr, ptr %37, align 8, !tbaa !25
  %.not5761 = icmp eq ptr %38, null
  br i1 %.not5761, label %._crit_edge65.thread, label %.lr.ph64.preheader

.lr.ph64.preheader:                               ; preds = %33
  %39 = tail call i32 %4(ptr noundef nonnull %1, ptr noundef nonnull %38, ptr noundef %2) #9
  %40 = icmp eq i32 %39, 0
  %.pre70.pre82 = load ptr, ptr %0, align 8, !tbaa !24
  br i1 %40, label %._crit_edge65, label %.lr.ph85

.lr.ph85:                                         ; preds = %.lr.ph64.preheader, %.lr.ph64
  %.pre70.pre84 = phi ptr [ %.pre70.pre, %.lr.ph64 ], [ %.pre70.pre82, %.lr.ph64.preheader ]
  %.0506283 = phi i32 [ %.050, %.lr.ph64 ], [ %.05060, %.lr.ph64.preheader ]
  %41 = add i32 %.0506283, 1
  %.050 = and i32 %41, %.pre-phi
  %42 = zext i32 %.050 to i64
  %43 = getelementptr ptr, ptr %.pre70.pre84, i64 %42
  %44 = load ptr, ptr %43, align 8, !tbaa !25
  %.not57 = icmp eq ptr %44, null
  br i1 %.not57, label %._crit_edge65.thread, label %.lr.ph64, !llvm.loop !32

.lr.ph64:                                         ; preds = %.lr.ph85
  %45 = tail call i32 %4(ptr noundef nonnull %1, ptr noundef nonnull %44, ptr noundef %2) #9
  %46 = icmp eq i32 %45, 0
  %.pre70.pre = load ptr, ptr %0, align 8, !tbaa !24
  br i1 %46, label %._crit_edge65, label %.lr.ph85, !llvm.loop !32

._crit_edge65.thread:                             ; preds = %.lr.ph85, %33
  %.ph = phi ptr [ %35, %33 ], [ %.pre70.pre84, %.lr.ph85 ]
  %.lcssa.ph = phi i64 [ %36, %33 ], [ %42, %.lr.ph85 ]
  %47 = getelementptr ptr, ptr %.ph, i64 %.lcssa.ph
  br label %50

._crit_edge65:                                    ; preds = %.lr.ph64, %.lr.ph64.preheader
  %.lcssa = phi i64 [ %36, %.lr.ph64.preheader ], [ %42, %.lr.ph64 ]
  %.pre70.pre.lcssa = phi ptr [ %.pre70.pre82, %.lr.ph64.preheader ], [ %.pre70.pre, %.lr.ph64 ]
  %.phi.trans.insert.phi.trans.insert = getelementptr ptr, ptr %.pre70.pre.lcssa, i64 %.lcssa
  %.pre71.pre = load ptr, ptr %.phi.trans.insert.phi.trans.insert, align 8, !tbaa !25
  %48 = getelementptr ptr, ptr %.pre70.pre.lcssa, i64 %.lcssa
  %49 = icmp eq ptr %.pre71.pre, null
  br i1 %49, label %50, label %54

50:                                               ; preds = %._crit_edge65.thread, %._crit_edge65
  %51 = phi ptr [ %47, %._crit_edge65.thread ], [ %48, %._crit_edge65 ]
  %52 = load i32, ptr %6, align 8, !tbaa !20
  %53 = add i32 %52, 1
  store i32 %53, ptr %6, align 8, !tbaa !20
  store ptr %2, ptr %51, align 8, !tbaa !25
  br label %.thread

54:                                               ; preds = %._crit_edge65
  br i1 %3, label %55, label %.thread

55:                                               ; preds = %54
  store ptr %2, ptr %48, align 8, !tbaa !25
  br label %.thread

.thread:                                          ; preds = %11, %50, %55, %54
  %.1 = phi ptr [ %.pre71.pre, %54 ], [ %.pre71.pre, %55 ], [ null, %50 ], [ null, %11 ]
  ret ptr %.1
}